target datalayout = "e-m:e-p270:32:32-p271:32:32-p272:64:64-i64:64-i128:128-f80:128-n8:16:32:64-S128"
target triple = "x86_64-pc-linux-gnu"

%struct.Gia_Man_t_ = type { ptr, ptr, i32, i32, i32, i32, ptr, ptr, i32, i32, i32, ptr, ptr, %struct.Vec_Int_t_, %struct.Vec_Int_t_, i32, i32, i32, %struct.Vec_Int_t_, ptr, ptr, ptr, i32, i32, i32, i32, ptr, ptr, ptr, ptr, ptr, i32, i32, ptr, i32, ptr, ptr, ptr, ptr, ptr, ptr, ptr, ptr, ptr, ptr, ptr, ptr, ptr, ptr, ptr, ptr, ptr, ptr, %struct.Vec_Int_t_, %struct.Vec_Int_t_, ptr, ptr, ptr, ptr, ptr, ptr, ptr, ptr, ptr, ptr, ptr, ptr, ptr, ptr, ptr, ptr, ptr, ptr, ptr, ptr, ptr, i32, float, float, ptr, ptr, i32, ptr, ptr, ptr, ptr, ptr, ptr, ptr, ptr, ptr, ptr, ptr, ptr, ptr, ptr, ptr, i64, i64, ptr, ptr, i32, i32, i32, i32, i32, i32, i32, i32, i32, i32, i32, i32, ptr, ptr, ptr, ptr, ptr, ptr, ptr, ptr, i32, i32, i32, ptr, i32, i32, ptr, ptr, ptr, ptr, ptr, ptr, i32, i32, ptr, %struct.Vec_Int_t_, %struct.Vec_Int_t_, %struct.Vec_Int_t_, ptr, ptr, ptr }
%struct.Vec_Int_t_ = type { i32, i32, ptr }
%struct.Gia_Obj_t_ = type <{ i64, i32 }>

; Function Attrs: nounwind uwtable
define internal i32 @Gia_ObjIsCo(ptr noundef %0) #0 {
  %2 = alloca ptr, align 8
  store ptr %0, ptr %2, align 8
  %3 = load ptr, ptr %2, align 8
  %4 = load i64, ptr %3, align 4
  %5 = lshr i64 %4, 31
  %6 = and i64 %5, 1
  %7 = trunc i64 %6 to i32
  %8 = icmp ne i32 %7, 0
  br i1 %8, label %9, label %15

9:                                                ; preds = %1
  %10 = load ptr, ptr %2, align 8
  %11 = load i64, ptr %10, align 4
  %12 = and i64 %11, 536870911
  %13 = trunc i64 %12 to i32
  %14 = icmp ne i32 %13, 536870911
  br label %15

15:                                               ; preds = %9, %1
  %16 = phi i1 [ false, %1 ], [ %14, %9 ]
  %17 = zext i1 %16 to i32
  ret i32 %17
}

; Function Attrs: nounwind uwtable
define internal ptr @Gia_ObjFanin1(ptr noundef %0) #0 {
  %2 = alloca ptr, align 8
  store ptr %0, ptr %2, align 8
  %3 = load ptr, ptr %2, align 8
  %4 = load ptr, ptr %2, align 8
  %5 = load i64, ptr %4, align 4
  %6 = lshr i64 %5, 32
  %7 = and i64 %6, 536870911
  %8 = trunc i64 %7 to i32
  %9 = sext i32 %8 to i64
  %10 = sub i64 0, %9
  %11 = getelementptr inbounds %struct.Gia_Obj_t_, ptr %3, i64 %10
  ret ptr %11
}

; Function Attrs: nounwind uwtable
define internal ptr @Gia_ObjFanin0(ptr noundef %0) #0 {
  %2 = alloca ptr, align 8
  store ptr %0, ptr %2, align 8
  %3 = load ptr, ptr %2, align 8
  %4 = load ptr, ptr %2, align 8
  %5 = load i64, ptr %4, align 4
  %6 = and i64 %5, 536870911
  %7 = trunc i64 %6 to i32
  %8 = sext i32 %7 to i64
  %9 = sub i64 0, %8
  %10 = getelementptr inbounds %struct.Gia_Obj_t_, ptr %3, i64 %9
  ret ptr %10
}

; Function Attrs: nounwind uwtable
define internal i32 @Gia_ObjIsAnd(ptr noundef %0) #0 {
  %2 = alloca ptr, align 8
  store ptr %0, ptr %2, align 8
  %3 = load ptr, ptr %2, align 8
  %4 = load i64, ptr %3, align 4
  %5 = lshr i64 %4, 31
  %6 = and i64 %5, 1
  %7 = trunc i64 %6 to i32
  %8 = icmp ne i32 %7, 0
  br i1 %8, label %15, label %9

9:                                                ; preds = %1
  %10 = load ptr, ptr %2, align 8
  %11 = load i64, ptr %10, align 4
  %12 = and i64 %11, 536870911
  %13 = trunc i64 %12 to i32
  %14 = icmp ne i32 %13, 536870911
  br label %15

15:                                               ; preds = %9, %1
  %16 = phi i1 [ false, %1 ], [ %14, %9 ]
  %17 = zext i1 %16 to i32
  ret i32 %17
}

; Function Attrs: nounwind uwtable
define internal ptr @Gia_ManObj(ptr noundef %0, i32 noundef %1) #0 {
  %3 = alloca ptr, align 8
  %4 = alloca i32, align 4
  store ptr %0, ptr %3, align 8
  store i32 %1, ptr %4, align 4
  %5 = load ptr, ptr %3, align 8
  %6 = getelementptr inbounds %struct.Gia_Man_t_, ptr %5, i32 0, i32 6
  %7 = load ptr, ptr %6, align 8
  %8 = load i32, ptr %4, align 4
  %9 = sext i32 %8 to i64
  %10 = getelementptr inbounds %struct.Gia_Obj_t_, ptr %7, i64 %9
  ret ptr %10
}

; Function Attrs: nounwind uwtable
define i32 @Gia_ManMarkDangling(ptr noundef %0) #0 {
  %2 = alloca ptr, align 8
  %3 = alloca ptr, align 8
  %4 = alloca i32, align 4
  %5 = alloca i32, align 4
  store ptr %0, ptr %2, align 8
  store i32 0, ptr %5, align 4
  store i32 0, ptr %4, align 4
  br label %6

6:                                                ; preds = %50, %1
  %7 = load i32, ptr %4, align 4
  %8 = load ptr, ptr %2, align 8
  %9 = getelementptr inbounds %struct.Gia_Man_t_, ptr %8, i32 0, i32 4
  %10 = load i32, ptr %9, align 8
  %11 = icmp slt i32 %7, %10
  br i1 %11, label %12, label %17

12:                                               ; preds = %6
  %13 = load ptr, ptr %2, align 8
  %14 = load i32, ptr %4, align 4
  %15 = call ptr @Gia_ManObj(ptr noundef %13, i32 noundef %14)
  store ptr %15, ptr %3, align 8
  %16 = icmp ne ptr %15, null
  br label %17

17:                                               ; preds = %12, %6
  %18 = phi i1 [ false, %6 ], [ %16, %12 ]
  br i1 %18, label %19, label %53

19:                                               ; preds = %17
  %20 = load ptr, ptr %3, align 8
  %21 = load i64, ptr %20, align 4
  %22 = and i64 %21, -1073741825
  %23 = or i64 %22, 0
  store i64 %23, ptr %20, align 4
  %24 = load ptr, ptr %3, align 8
  %25 = call i32 @Gia_ObjIsAnd(ptr noundef %24)
  %26 = icmp ne i32 %25, 0
  br i1 %26, label %27, label %38

27:                                               ; preds = %19
  %28 = load ptr, ptr %3, align 8
  %29 = call ptr @Gia_ObjFanin0(ptr noundef %28)
  %30 = load i64, ptr %29, align 4
  %31 = and i64 %30, -1073741825
  %32 = or i64 %31, 1073741824
  store i64 %32, ptr %29, align 4
  %33 = load ptr, ptr %3, align 8
  %34 = call ptr @Gia_ObjFanin1(ptr noundef %33)
  %35 = load i64, ptr %34, align 4
  %36 = and i64 %35, -1073741825
  %37 = or i64 %36, 1073741824
  store i64 %37, ptr %34, align 4
  br label %49

38:                                               ; preds = %19
  %39 = load ptr, ptr %3, align 8
  %40 = call i32 @Gia_ObjIsCo(ptr noundef %39)
  %41 = icmp ne i32 %40, 0
  br i1 %41, label %42, label %48

42:                                               ; preds = %38
  %43 = load ptr, ptr %3, align 8
  %44 = call ptr @Gia_ObjFanin0(ptr noundef %43)
  %45 = load i64, ptr %44, align 4
  %46 = and i64 %45, -1073741825
  %47 = or i64 %46, 1073741824
  store i64 %47, ptr %44, align 4
  br label %48

48:                                               ; preds = %42, %38
  br label %49

49:                                               ; preds = %48, %27
  br label %50

50:                                               ; preds = %49
  %51 = load i32, ptr %4, align 4
  %52 = add nsw i32 %51, 1
  store i32 %52, ptr %4, align 4
  br label %6, !llvm.loop !50

53:                                               ; preds = %17
  store i32 0, ptr %4, align 4
  br label %54

54:                                               ; preds = %84, %53
  %55 = load i32, ptr %4, align 4
  %56 = load ptr, ptr %2, align 8
  %57 = getelementptr inbounds %struct.Gia_Man_t_, ptr %56, i32 0, i32 4
  %58 = load i32, ptr %57, align 8
  %59 = icmp slt i32 %55, %58
  br i1 %59, label %60, label %65

60:                                               ; preds = %54
  %61 = load ptr, ptr %2, align 8
  %62 = load i32, ptr %4, align 4
  %63 = call ptr @Gia_ManObj(ptr noundef %61, i32 noundef %62)
  store ptr %63, ptr %3, align 8
  %64 = icmp ne ptr %63, null
  br label %65

65:                                               ; preds = %60, %54
  %66 = phi i1 [ false, %54 ], [ %64, %60 ]
  br i1 %66, label %67, label %87

67:                                               ; preds = %65
  %68 = load ptr, ptr %3, align 8
  %69 = call i32 @Gia_ObjIsAnd(ptr noundef %68)
  %70 = icmp ne i32 %69, 0
  br i1 %70, label %72, label %71

71:                                               ; preds = %67
  br label %83

72:                                               ; preds = %67
  %73 = load ptr, ptr %3, align 8
  %74 = load i64, ptr %73, align 4
  %75 = lshr i64 %74, 30
  %76 = and i64 %75, 1
  %77 = trunc i64 %76 to i32
  %78 = icmp ne i32 %77, 0
  %79 = xor i1 %78, true
  %80 = zext i1 %79 to i32
  %81 = load i32, ptr %5, align 4
  %82 = add nsw i32 %81, %80
  store i32 %82, ptr %5, align 4
  br label %83

83:                                               ; preds = %72, %71
  br label %84

84:                                               ; preds = %83
  %85 = load i32, ptr %4, align 4
  %86 = add nsw i32 %85, 1
  store i32 %86, ptr %4, align 4
  br label %54, !llvm.loop !51

87:                                               ; preds = %65
  %88 = load i32, ptr %5, align 4
  ret i32 %88
}