; Function Attrs: nofree norecurse nosync nounwind memory(readwrite, inaccessiblemem: none) uwtable
define i32 @Gia_ManMarkDangling(ptr noundef readonly captures(none) %0) local_unnamed_addr #1 {
  %2 = getelementptr i8, ptr %0, i64 32
  %3 = getelementptr inbounds nuw i8, ptr %0, i64 24
  %4 = load i32, ptr %3, align 8
  %5 = icmp sgt i32 %4, 0
  br i1 %5, label %.lr.ph.preheader, label %.critedge2

.lr.ph.preheader:                                 ; preds = %1
  %.val3057 = load ptr, ptr %2, align 8
  %.not58 = icmp eq ptr %.val3057, null
  br i1 %.not58, label %.critedge, label %.lr.ph60

.lr.ph:                                           ; preds = %26
  %.val30 = load ptr, ptr %2, align 8
  %6 = getelementptr inbounds nuw %struct.Gia_Obj_t_, ptr %.val30, i64 %indvars.iv.next
  %.not = icmp eq ptr %.val30, null
  br i1 %.not, label %.critedge, label %.lr.ph60, !llvm.loop !48

.lr.ph60:                                         ; preds = %.lr.ph.preheader, %.lr.ph
  %7 = phi ptr [ %6, %.lr.ph ], [ %.val3057, %.lr.ph.preheader ]
  %indvars.iv59 = phi i64 [ %indvars.iv.next, %.lr.ph ], [ 0, %.lr.ph.preheader ]
  %8 = load i64, ptr %7, align 4
  %9 = and i64 %8, -1073741825
  store i64 %9, ptr %7, align 4
  %10 = and i64 %8, 2147483648
  %.not.i = icmp eq i64 %10, 0
  %11 = and i64 %8, 536870911
  %12 = icmp ne i64 %11, 536870911
  %narrow.i = and i1 %.not.i, %12
  br i1 %narrow.i, label %13, label %21

13:                                               ; preds = %.lr.ph60
  %14 = sub nsw i64 0, %11
  %15 = getelementptr inbounds %struct.Gia_Obj_t_, ptr %7, i64 %14
  %16 = load i64, ptr %15, align 4
  %17 = or i64 %16, 1073741824
  store i64 %17, ptr %15, align 4
  %18 = load i64, ptr %7, align 4
  %19 = lshr i64 %18, 32
  %20 = and i64 %19, 536870911
  br label %.sink.split

21:                                               ; preds = %.lr.ph60
  %.not.i34 = icmp ne i64 %10, 0
  %narrow.i35 = and i1 %.not.i34, %12
  br i1 %narrow.i35, label %.sink.split, label %26

.sink.split:                                      ; preds = %21, %13
  %.sink = phi i64 [ %20, %13 ], [ %11, %21 ]
  %22 = sub nsw i64 0, %.sink
  %23 = getelementptr inbounds %struct.Gia_Obj_t_, ptr %7, i64 %22
  %24 = load i64, ptr %23, align 4
  %25 = or i64 %24, 1073741824
  store i64 %25, ptr %23, align 4
  br label %26

26:                                               ; preds = %.sink.split, %21
  %indvars.iv.next = add nuw nsw i64 %indvars.iv59, 1
  %27 = load i32, ptr %3, align 8
  %28 = sext i32 %27 to i64
  %29 = icmp slt i64 %indvars.iv.next, %28
  br i1 %29, label %.lr.ph, label %.critedge, !llvm.loop !48

.critedge:                                        ; preds = %26, %.lr.ph, %.lr.ph.preheader
  %.lcssa = phi i32 [ %4, %.lr.ph.preheader ], [ %27, %.lr.ph ], [ %27, %26 ]
  %30 = icmp sgt i32 %.lcssa, 0
  br i1 %30, label %.lr.ph45, label %.critedge2

.lr.ph45:                                         ; preds = %.critedge
  %.val = load ptr, ptr %2, align 8
  %.not25 = icmp eq ptr %.val, null
  br i1 %.not25, label %.critedge2, label %.lr.ph45.split.preheader

.lr.ph45.split.preheader:                         ; preds = %.lr.ph45
  %wide.trip.count = zext nneg i32 %.lcssa to i64
  br label %.lr.ph45.split

.lr.ph45.split:                                   ; preds = %.lr.ph45.split.preheader, %.lr.ph45.split
  %indvars.iv50 = phi i64 [ 0, %.lr.ph45.split.preheader ], [ %indvars.iv.next51, %.lr.ph45.split ]
  %.044 = phi i32 [ 0, %.lr.ph45.split.preheader ], [ %.1, %.lr.ph45.split ]
  %31 = getelementptr inbounds nuw %struct.Gia_Obj_t_, ptr %.val, i64 %indvars.iv50
  %.val31 = load i64, ptr %31, align 4
  %32 = and i64 %.val31, 2147483648
  %.not.i36 = icmp eq i64 %32, 0
  %33 = and i64 %.val31, 536870911
  %34 = icmp ne i64 %33, 536870911
  %narrow.i37.not.not = and i1 %.not.i36, %34
  %35 = and i64 %.val31, 1073741824
  %.not27 = icmp eq i64 %35, 0
  %narrow = select i1 %narrow.i37.not.not, i1 %.not27, i1 false
  %36 = zext i1 %narrow to i32
  %.1 = add nuw nsw i32 %.044, %36
  %indvars.iv.next51 = add nuw nsw i64 %indvars.iv50, 1
  %exitcond.not = icmp eq i64 %indvars.iv.next51, %wide.trip.count
  br i1 %exitcond.not, label %.critedge2, label %.lr.ph45.split, !llvm.loop !49

.critedge2:                                       ; preds = %.lr.ph45.split, %1, %.lr.ph45, %.critedge
  %.0.lcssa = phi i32 [ 0, %.critedge ], [ 0, %.lr.ph45 ], [ 0, %1 ], [ %.1, %.lr.ph45.split ]
  ret i32 %.0.lcssa
}